target datalayout = "e-m:e-p270:32:32-p271:32:32-p272:64:64-i64:64-i128:128-f80:128-n8:16:32:64-S128"
target triple = "x86_64-pc-linux-gnu"

%struct.evthread_lock_callbacks = type { i32, i32, ptr, ptr, ptr, ptr }
%struct.bufferevent_private = type { %struct.bufferevent, ptr, i8, i16, i16, i16, i32, i32, %struct.event_callback, i32, i32, ptr, i64, i64, ptr, %union.anon.7, ptr }
%struct.bufferevent = type { ptr, ptr, %struct.event, %struct.event, ptr, ptr, %struct.event_watermark, %struct.event_watermark, ptr, ptr, ptr, ptr, %struct.timeval, %struct.timeval, i16 }
%struct.event = type { %struct.event_callback, %union.anon.0, i32, i16, i16, ptr, %union.anon.2, %struct.timeval }
%union.anon.0 = type { %struct.anon.1 }
%struct.anon.1 = type { ptr, ptr }
%union.anon.2 = type { %struct.anon.3 }
%struct.anon.3 = type { %struct.anon.4, %struct.timeval }
%struct.anon.4 = type { ptr, ptr }
%struct.event_watermark = type { i64, i64 }
%struct.timeval = type { i64, i64 }
%struct.event_callback = type { %struct.anon, i16, i8, i8, %union.anon, ptr }
%struct.anon = type { ptr, ptr }
%union.anon = type { ptr }
%union.anon.7 = type { %struct.sockaddr_in6 }
%struct.sockaddr_in6 = type { i16, i16, i32, %struct.in6_addr, i32 }
%struct.in6_addr = type { %union.anon.8 }
%union.anon.8 = type { [4 x i32] }
%struct.bufferevent_ops = type { ptr, i64, ptr, ptr, ptr, ptr, ptr, ptr, ptr }

@evthread_lock_fns_ = external global %struct.evthread_lock_callbacks, align 8

; Function Attrs: nounwind uwtable
define void @bufferevent_unsuspend_read_(ptr noundef %0, i16 noundef zeroext %1) #0 {
  %3 = alloca ptr, align 8
  %4 = alloca i16, align 2
  %5 = alloca ptr, align 8
  %6 = alloca ptr, align 8
  %7 = alloca ptr, align 8
  store ptr %0, ptr %3, align 8
  store i16 %1, ptr %4, align 2
  call void @llvm.lifetime.start.p0(i64 8, ptr %5) #7
  %8 = load ptr, ptr %3, align 8
  %9 = getelementptr inbounds i8, ptr %8, i64 0
  store ptr %9, ptr %5, align 8
  br label %10

10:                                               ; preds = %2
  call void @llvm.lifetime.start.p0(i64 8, ptr %6) #7
  %11 = load ptr, ptr %3, align 8
  %12 = getelementptr inbounds i8, ptr %11, i64 0
  store ptr %12, ptr %6, align 8
  br label %13

13:                                               ; preds = %10
  %14 = load ptr, ptr %6, align 8
  %15 = getelementptr inbounds nuw %struct.bufferevent_private, ptr %14, i32 0, i32 11
  %16 = load ptr, ptr %15, align 8
  %17 = icmp ne ptr %16, null
  br i1 %17, label %18, label %24

18:                                               ; preds = %13
  %19 = load ptr, ptr getelementptr inbounds nuw (%struct.evthread_lock_callbacks, ptr @evthread_lock_fns_, i32 0, i32 4), align 8
  %20 = load ptr, ptr %6, align 8
  %21 = getelementptr inbounds nuw %struct.bufferevent_private, ptr %20, i32 0, i32 11
  %22 = load ptr, ptr %21, align 8
  %23 = call i32 %19(i32 noundef 0, ptr noundef %22)
  br label %24

24:                                               ; preds = %18, %13
  br label %25

25:                                               ; preds = %24
  br label %26

26:                                               ; preds = %25
  call void @llvm.lifetime.end.p0(i64 8, ptr %6) #7
  br label %27

27:                                               ; preds = %26
  br label %28

28:                                               ; preds = %27
  %29 = load i16, ptr %4, align 2
  %30 = zext i16 %29 to i32
  %31 = xor i32 %30, -1
  %32 = load ptr, ptr %5, align 8
  %33 = getelementptr inbounds nuw %struct.bufferevent_private, ptr %32, i32 0, i32 4
  %34 = load i16, ptr %33, align 4
  %35 = zext i16 %34 to i32
  %36 = and i32 %35, %31
  %37 = trunc i32 %36 to i16
  store i16 %37, ptr %33, align 4
  %38 = load ptr, ptr %5, align 8
  %39 = getelementptr inbounds nuw %struct.bufferevent_private, ptr %38, i32 0, i32 4
  %40 = load i16, ptr %39, align 4
  %41 = icmp ne i16 %40, 0
  br i1 %41, label %57, label %42

42:                                               ; preds = %28
  %43 = load ptr, ptr %3, align 8
  %44 = getelementptr inbounds nuw %struct.bufferevent, ptr %43, i32 0, i32 14
  %45 = load i16, ptr %44, align 8
  %46 = sext i16 %45 to i32
  %47 = and i32 %46, 2
  %48 = icmp ne i32 %47, 0
  br i1 %48, label %49, label %57

49:                                               ; preds = %42
  %50 = load ptr, ptr %3, align 8
  %51 = getelementptr inbounds nuw %struct.bufferevent, ptr %50, i32 0, i32 1
  %52 = load ptr, ptr %51, align 8
  %53 = getelementptr inbounds nuw %struct.bufferevent_ops, ptr %52, i32 0, i32 2
  %54 = load ptr, ptr %53, align 8
  %55 = load ptr, ptr %3, align 8
  %56 = call i32 %54(ptr noundef %55, i16 noundef signext 2)
  br label %57

57:                                               ; preds = %49, %42, %28
  br label %58

58:                                               ; preds = %57
  call void @llvm.lifetime.start.p0(i64 8, ptr %7) #7
  %59 = load ptr, ptr %3, align 8
  %60 = getelementptr inbounds i8, ptr %59, i64 0
  store ptr %60, ptr %7, align 8
  br label %61

61:                                               ; preds = %58
  %62 = load ptr, ptr %7, align 8
  %63 = getelementptr inbounds nuw %struct.bufferevent_private, ptr %62, i32 0, i32 11
  %64 = load ptr, ptr %63, align 8
  %65 = icmp ne ptr %64, null
  br i1 %65, label %66, label %72

66:                                               ; preds = %61
  %67 = load ptr, ptr getelementptr inbounds nuw (%struct.evthread_lock_callbacks, ptr @evthread_lock_fns_, i32 0, i32 5), align 8
  %68 = load ptr, ptr %7, align 8
  %69 = getelementptr inbounds nuw %struct.bufferevent_private, ptr %68, i32 0, i32 11
  %70 = load ptr, ptr %69, align 8
  %71 = call i32 %67(i32 noundef 0, ptr noundef %70)
  br label %72

72:                                               ; preds = %66, %61
  br label %73

73:                                               ; preds = %72
  br label %74

74:                                               ; preds = %73
  call void @llvm.lifetime.end.p0(i64 8, ptr %7) #7
  br label %75

75:                                               ; preds = %74
  br label %76

76:                                               ; preds = %75
  call void @llvm.lifetime.end.p0(i64 8, ptr %5) #7
  ret void
}