; Function Attrs: nounwind uwtable
define void @bufferevent_unsuspend_read_(ptr noundef %0, i16 noundef zeroext %1) local_unnamed_addr #0 {
  %3 = getelementptr inbounds nuw i8, ptr %0, i64 448
  %4 = load ptr, ptr %3, align 8
  %.not = icmp eq ptr %4, null
  br i1 %.not, label %8, label %5

5:                                                ; preds = %2
  %6 = load ptr, ptr getelementptr inbounds nuw (i8, ptr @evthread_lock_fns_, i64 24), align 8
  %7 = tail call i32 %6(i32 noundef 0, ptr noundef nonnull %4) #7
  br label %8

8:                                                ; preds = %5, %2
  %9 = xor i16 %1, -1
  %10 = getelementptr inbounds nuw i8, ptr %0, i64 388
  %11 = load i16, ptr %10, align 4
  %12 = and i16 %11, %9
  store i16 %12, ptr %10, align 4
  %.not13 = icmp eq i16 %12, 0
  br i1 %.not13, label %13, label %23

13:                                               ; preds = %8
  %14 = getelementptr inbounds nuw i8, ptr %0, i64 368
  %15 = load i16, ptr %14, align 8
  %16 = and i16 %15, 2
  %.not14 = icmp eq i16 %16, 0
  br i1 %.not14, label %23, label %17

17:                                               ; preds = %13
  %18 = getelementptr inbounds nuw i8, ptr %0, i64 8
  %19 = load ptr, ptr %18, align 8
  %20 = getelementptr inbounds nuw i8, ptr %19, i64 16
  %21 = load ptr, ptr %20, align 8
  %22 = tail call i32 %21(ptr noundef nonnull %0, i16 noundef signext 2) #7
  br label %23

23:                                               ; preds = %8, %13, %17
  %24 = load ptr, ptr %3, align 8
  %.not15 = icmp eq ptr %24, null
  br i1 %.not15, label %28, label %25

25:                                               ; preds = %23
  %26 = load ptr, ptr getelementptr inbounds nuw (i8, ptr @evthread_lock_fns_, i64 32), align 8
  %27 = tail call i32 %26(i32 noundef 0, ptr noundef nonnull %24) #7
  br label %28

28:                                               ; preds = %25, %23
  ret void
}